target datalayout = "e-m:e-p270:32:32-p271:32:32-p272:64:64-i64:64-i128:128-f80:128-n8:16:32:64-S128"
target triple = "x86_64-unknown-linux-gnu"

%"class.llvh::raw_fd_ostream" = type { %"class.llvh::raw_pwrite_stream.base", i32, i8, i8, %"class.std::error_code", i64 }
%"class.llvh::raw_pwrite_stream.base" = type { %"class.llvh::raw_ostream.base" }
%"class.llvh::raw_ostream.base" = type <{ ptr, ptr, ptr, ptr, i32 }>
%"class.std::error_code" = type { i32, ptr }
%"class.llvh::raw_ostream" = type <{ ptr, ptr, ptr, ptr, i32, [4 x i8] }>

; Function Attrs: mustprogress nounwind uwtable
define hidden void @_ZN4llvh11raw_ostream14flush_nonemptyEv(ptr noundef nonnull align 8 dereferenceable(36) %this) #0 align 2 {
entry:
  %this.addr = alloca ptr, align 8
  %Length = alloca i64, align 8
  store ptr %this, ptr %this.addr, align 8
  %this1 = load ptr, ptr %this.addr, align 8
  %OutBufCur = getelementptr inbounds %"class.llvh::raw_ostream", ptr %this1, i32 0, i32 3
  %0 = load ptr, ptr %OutBufCur, align 8
  %OutBufStart = getelementptr inbounds %"class.llvh::raw_ostream", ptr %this1, i32 0, i32 1
  %1 = load ptr, ptr %OutBufStart, align 8
  %sub.ptr.lhs.cast = ptrtoint ptr %0 to i64
  %sub.ptr.rhs.cast = ptrtoint ptr %1 to i64
  %sub.ptr.sub = sub i64 %sub.ptr.lhs.cast, %sub.ptr.rhs.cast
  store i64 %sub.ptr.sub, ptr %Length, align 8
  %OutBufStart2 = getelementptr inbounds %"class.llvh::raw_ostream", ptr %this1, i32 0, i32 1
  %2 = load ptr, ptr %OutBufStart2, align 8
  %OutBufCur3 = getelementptr inbounds %"class.llvh::raw_ostream", ptr %this1, i32 0, i32 3
  store ptr %2, ptr %OutBufCur3, align 8
  %OutBufStart4 = getelementptr inbounds %"class.llvh::raw_ostream", ptr %this1, i32 0, i32 1
  %3 = load ptr, ptr %OutBufStart4, align 8
  %4 = load i64, ptr %Length, align 8
  %vtable = load ptr, ptr %this1, align 8
  %vfn = getelementptr inbounds ptr, ptr %vtable, i64 7
  %5 = load ptr, ptr %vfn, align 8
  call void %5(ptr noundef nonnull align 8 dereferenceable(36) %this1, ptr noundef %3, i64 noundef %4)
  ret void
}

; Function Attrs: mustprogress nounwind uwtable
define linkonce_odr hidden void @_ZN4llvh11raw_ostream5flushEv(ptr noundef nonnull align 8 dereferenceable(36) %this) #0 comdat align 2 {
entry:
  %this.addr = alloca ptr, align 8
  store ptr %this, ptr %this.addr, align 8
  %this1 = load ptr, ptr %this.addr, align 8
  %OutBufCur = getelementptr inbounds %"class.llvh::raw_ostream", ptr %this1, i32 0, i32 3
  %0 = load ptr, ptr %OutBufCur, align 8
  %OutBufStart = getelementptr inbounds %"class.llvh::raw_ostream", ptr %this1, i32 0, i32 1
  %1 = load ptr, ptr %OutBufStart, align 8
  %cmp = icmp ne ptr %0, %1
  br i1 %cmp, label %if.then, label %if.end

if.then:                                          ; preds = %entry
  call void @_ZN4llvh11raw_ostream14flush_nonemptyEv(ptr noundef nonnull align 8 dereferenceable(36) %this1)
  br label %if.end

if.end:                                           ; preds = %if.then, %entry
  ret void
}

; Function Attrs: mustprogress nounwind uwtable
define hidden noundef nonnull align 8 dereferenceable(36) ptr @_ZN4llvh14raw_fd_ostream11changeColorENS_11raw_ostream6ColorsEbb(ptr noundef nonnull align 8 dereferenceable(72) %this, i32 noundef %colors, i1 noundef zeroext %bold, i1 noundef zeroext %bg) unnamed_addr #0 align 2 {
entry:
  %this.addr = alloca ptr, align 8
  %colors.addr = alloca i32, align 4
  %bold.addr = alloca i8, align 1
  %bg.addr = alloca i8, align 1
  %colorcode = alloca ptr, align 8
  %len = alloca i64, align 8
  store ptr %this, ptr %this.addr, align 8
  store i32 %colors, ptr %colors.addr, align 4
  %frombool = zext i1 %bold to i8
  store i8 %frombool, ptr %bold.addr, align 1
  %frombool1 = zext i1 %bg to i8
  store i8 %frombool1, ptr %bg.addr, align 1
  %this2 = load ptr, ptr %this.addr, align 8
  %call = call noundef zeroext i1 @_ZN4llvh3sys7Process15ColorNeedsFlushEv()
  br i1 %call, label %if.then, label %if.end

if.then:                                          ; preds = %entry
  call void @_ZN4llvh11raw_ostream5flushEv(ptr noundef nonnull align 8 dereferenceable(36) %this2)
  br label %if.end

if.end:                                           ; preds = %if.then, %entry
  %0 = load i32, ptr %colors.addr, align 4
  %cmp = icmp eq i32 %0, 8
  br i1 %cmp, label %cond.true, label %cond.false

cond.true:                                        ; preds = %if.end
  %1 = load i8, ptr %bg.addr, align 1
  %tobool = trunc i8 %1 to i1
  %call3 = call noundef ptr @_ZN4llvh3sys7Process10OutputBoldEb(i1 noundef zeroext %tobool)
  br label %cond.end

cond.false:                                       ; preds = %if.end
  %2 = load i32, ptr %colors.addr, align 4
  %conv = trunc i32 %2 to i8
  %3 = load i8, ptr %bold.addr, align 1
  %tobool4 = trunc i8 %3 to i1
  %4 = load i8, ptr %bg.addr, align 1
  %tobool5 = trunc i8 %4 to i1
  %call6 = call noundef ptr @_ZN4llvh3sys7Process11OutputColorEcbb(i8 noundef signext %conv, i1 noundef zeroext %tobool4, i1 noundef zeroext %tobool5)
  br label %cond.end

cond.end:                                         ; preds = %cond.false, %cond.true
  %cond = phi ptr [ %call3, %cond.true ], [ %call6, %cond.false ]
  store ptr %cond, ptr %colorcode, align 8
  %5 = load ptr, ptr %colorcode, align 8
  %tobool7 = icmp ne ptr %5, null
  br i1 %tobool7, label %if.then8, label %if.end11

if.then8:                                         ; preds = %cond.end
  %6 = load ptr, ptr %colorcode, align 8
  %call9 = call i64 @strlen(ptr noundef %6) #15
  store i64 %call9, ptr %len, align 8
  %7 = load ptr, ptr %colorcode, align 8
  %8 = load i64, ptr %len, align 8
  %call10 = call noundef nonnull align 8 dereferenceable(36) ptr @_ZN4llvh11raw_ostream5writeEPKcm(ptr noundef nonnull align 8 dereferenceable(36) %this2, ptr noundef %7, i64 noundef %8)
  %9 = load i64, ptr %len, align 8
  %pos = getelementptr inbounds %"class.llvh::raw_fd_ostream", ptr %this2, i32 0, i32 5
  %10 = load i64, ptr %pos, align 8
  %sub = sub i64 %10, %9
  store i64 %sub, ptr %pos, align 8
  br label %if.end11

if.end11:                                         ; preds = %if.then8, %cond.end
  ret ptr %this2
}